#include <math.h>
#include <stdio.h>
#include <stdlib.h>
#include <string.h>

main()
{
int i,j,len,x;
char s[50],w[50];
scanf("%s%s",s,w);
len=strlen(s);
for(i=0;i<50;i++)
{
	x=0;
	for(j=i;j<len+i;j++)
		{
			if(s[j-i]!=w[j]) x++;
	    }
	if(x==0) break;
}
printf("%d",i);
}